; Function Attrs: nofree norecurse nounwind memory(argmem: readwrite) uwtable
define hidden void @_mi_stat_decrease(ptr noundef captures(address) %0, i64 noundef %1) local_unnamed_addr #1 {
  %3 = sub nsw i64 0, %1
  %4 = icmp eq i64 %1, 0
  br i1 %4, label %mi_stat_update.exit, label %5

5:                                                ; preds = %2
  %6 = icmp uge ptr %0, @_mi_stats_main
  %7 = icmp ult ptr %0, getelementptr inbounds nuw (i8, ptr @_mi_stats_main, i64 688)
  %8 = select i1 %6, i1 %7, i1 false
  %9 = getelementptr inbounds nuw i8, ptr %0, i64 24
  br i1 %8, label %10, label %27, !prof !9

10:                                               ; preds = %5
  %11 = atomicrmw add ptr %9, i64 %3 monotonic, align 8
  %12 = getelementptr inbounds nuw i8, ptr %0, i64 16
  %13 = sub nsw i64 %11, %1
  %14 = load atomic i64, ptr %12 monotonic, align 8
  br label %15

15:                                               ; preds = %17, %10
  %.0.i.i = phi i64 [ %14, %10 ], [ %20, %17 ]
  %16 = icmp slt i64 %.0.i.i, %13
  br i1 %16, label %17, label %mi_atomic_maxi64_relaxed.exit.i

17:                                               ; preds = %15
  %18 = cmpxchg weak ptr %12, i64 %.0.i.i, i64 %13 release monotonic, align 8
  %19 = extractvalue { i64, i1 } %18, 1
  %20 = extractvalue { i64, i1 } %18, 0
  br i1 %19, label %mi_atomic_maxi64_relaxed.exit.i, label %15, !llvm.loop !10

mi_atomic_maxi64_relaxed.exit.i:                  ; preds = %17, %15
  %21 = icmp slt i64 %1, 0
  br i1 %21, label %22, label %24

22:                                               ; preds = %mi_atomic_maxi64_relaxed.exit.i
  %23 = atomicrmw add ptr %0, i64 %3 monotonic, align 8
  br label %mi_stat_update.exit

24:                                               ; preds = %mi_atomic_maxi64_relaxed.exit.i
  %25 = getelementptr inbounds nuw i8, ptr %0, i64 8
  %26 = atomicrmw add ptr %25, i64 %1 monotonic, align 8
  br label %mi_stat_update.exit

27:                                               ; preds = %5
  %28 = load i64, ptr %9, align 8, !tbaa !12
  %29 = sub nsw i64 %28, %1
  store i64 %29, ptr %9, align 8, !tbaa !12
  %30 = getelementptr inbounds nuw i8, ptr %0, i64 16
  %31 = load i64, ptr %30, align 8, !tbaa !14
  %32 = icmp sgt i64 %29, %31
  br i1 %32, label %33, label %34

33:                                               ; preds = %27
  store i64 %29, ptr %30, align 8, !tbaa !14
  br label %34

34:                                               ; preds = %33, %27
  %35 = icmp slt i64 %1, 0
  br i1 %35, label %36, label %39

36:                                               ; preds = %34
  %37 = load i64, ptr %0, align 8, !tbaa !15
  %38 = sub nsw i64 %37, %1
  store i64 %38, ptr %0, align 8, !tbaa !15
  br label %mi_stat_update.exit

39:                                               ; preds = %34
  %40 = getelementptr inbounds nuw i8, ptr %0, i64 8
  %41 = load i64, ptr %40, align 8, !tbaa !16
  %42 = add nsw i64 %41, %1
  store i64 %42, ptr %40, align 8, !tbaa !16
  br label %mi_stat_update.exit

mi_stat_update.exit:                              ; preds = %2, %22, %24, %36, %39
  ret void
}